target datalayout = "e-m:e-p270:32:32-p271:32:32-p272:64:64-i64:64-i128:128-f80:128-n8:16:32:64-S128"
target triple = "x86_64-pc-linux-gnu"

%struct.ossl_cmp_msg_st = type { ptr, ptr, ptr, ptr, ptr, ptr }
%struct.ossl_cmp_pkibody_st = type { i32, %union.anon }
%union.anon = type { ptr }
%struct.ossl_cmp_ctx_st = type { ptr, ptr, ptr, i32, ptr, ptr, ptr, ptr, ptr, i32, ptr, ptr, i32, i32, i32, i32, i64, ptr, ptr, i32, i32, ptr, ptr, ptr, ptr, ptr, i32, i32, i32, ptr, ptr, ptr, ptr, ptr, i64, ptr, i32, i32, ptr, ptr, ptr, ptr, ptr, ptr, ptr, ptr, i32, i32, ptr, ptr, i32, ptr, ptr, i32, ptr, ptr, i32, i32, ptr, ptr, i32, i32, ptr, ptr, i32, ptr, i32, ptr, i32, ptr, ptr, ptr, ptr, ptr, ptr }
%struct.ossl_cmp_revdetails_st = type { ptr, ptr }

@.str = private unnamed_addr constant [32 x i8] c"../openssl/crypto/cmp/cmp_msg.c\00", align 1
@__func__.ossl_cmp_rr_new = private unnamed_addr constant [16 x i8] c"ossl_cmp_rr_new\00", align 1

; Function Attrs: nounwind uwtable
define internal i32 @add1_extension(ptr noundef %0, i32 noundef %1, i32 noundef %2, ptr noundef %3) #0 {
  %5 = alloca i32, align 4
  %6 = alloca ptr, align 8
  %7 = alloca i32, align 4
  %8 = alloca i32, align 4
  %9 = alloca ptr, align 8
  %10 = alloca ptr, align 8
  %11 = alloca i32, align 4
  %12 = alloca i32, align 4
  store ptr %0, ptr %6, align 8, !tbaa !74
  store i32 %1, ptr %7, align 4, !tbaa !20
  store i32 %2, ptr %8, align 4, !tbaa !20
  store ptr %3, ptr %9, align 8, !tbaa !76
  call void @llvm.lifetime.start.p0(i64 8, ptr %10) #6
  call void @llvm.lifetime.start.p0(i64 4, ptr %11) #6
  %13 = load ptr, ptr %6, align 8, !tbaa !74
  %14 = icmp ne ptr %13, null
  %15 = zext i1 %14 to i32
  %16 = icmp ne i32 %15, 0
  %17 = xor i1 %16, true
  %18 = xor i1 %17, true
  %19 = zext i1 %18 to i32
  %20 = sext i32 %19 to i64
  %21 = call i64 @llvm.expect.i64(i64 %20, i64 1)
  %22 = icmp ne i64 %21, 0
  br i1 %22, label %24, label %23

23:                                               ; preds = %4
  store i32 0, ptr %5, align 4
  store i32 1, ptr %12, align 4
  br label %39

24:                                               ; preds = %4
  %25 = load i32, ptr %7, align 4, !tbaa !20
  %26 = load i32, ptr %8, align 4, !tbaa !20
  %27 = load ptr, ptr %9, align 8, !tbaa !76
  %28 = call ptr @X509V3_EXT_i2d(i32 noundef %25, i32 noundef %26, ptr noundef %27)
  store ptr %28, ptr %10, align 8, !tbaa !77
  %29 = icmp eq ptr %28, null
  br i1 %29, label %30, label %31

30:                                               ; preds = %24
  store i32 0, ptr %5, align 4
  store i32 1, ptr %12, align 4
  br label %39

31:                                               ; preds = %24
  %32 = load ptr, ptr %6, align 8, !tbaa !74
  %33 = load ptr, ptr %10, align 8, !tbaa !77
  %34 = call ptr @X509v3_add_ext(ptr noundef %32, ptr noundef %33, i32 noundef 0)
  %35 = icmp ne ptr %34, null
  %36 = zext i1 %35 to i32
  store i32 %36, ptr %11, align 4, !tbaa !20
  %37 = load ptr, ptr %10, align 8, !tbaa !77
  call void @X509_EXTENSION_free(ptr noundef %37)
  %38 = load i32, ptr %11, align 4, !tbaa !20
  store i32 %38, ptr %5, align 4
  store i32 1, ptr %12, align 4
  br label %39

39:                                               ; preds = %31, %30, %23
  call void @llvm.lifetime.end.p0(i64 4, ptr %11) #6
  call void @llvm.lifetime.end.p0(i64 8, ptr %10) #6
  %40 = load i32, ptr %5, align 4
  ret i32 %40
}

; Function Attrs: nounwind uwtable
define void @OSSL_CMP_MSG_free(ptr noundef %0) #0 {
  %2 = alloca ptr, align 8
  store ptr %0, ptr %2, align 8, !tbaa !10
  %3 = load ptr, ptr %2, align 8, !tbaa !10
  %4 = call ptr @OSSL_CMP_MSG_it()
  call void @ASN1_item_free(ptr noundef %3, ptr noundef %4)
  ret void
}

; Function Attrs: inlinehint nounwind uwtable
define internal i32 @sk_OSSL_CMP_REVDETAILS_push(ptr noundef %0, ptr noundef %1) #4 {
  %3 = alloca ptr, align 8
  %4 = alloca ptr, align 8
  store ptr %0, ptr %3, align 8, !tbaa !123
  store ptr %1, ptr %4, align 8, !tbaa !118
  %5 = load ptr, ptr %3, align 8, !tbaa !123
  %6 = load ptr, ptr %4, align 8, !tbaa !118
  %7 = call i32 @OPENSSL_sk_push(ptr noundef %5, ptr noundef %6)
  ret i32 %7
}

; Function Attrs: nounwind uwtable
define internal i32 @add_crl_reason_extension(ptr noundef %0, i32 noundef %1) #0 {
  %3 = alloca ptr, align 8
  %4 = alloca i32, align 4
  %5 = alloca ptr, align 8
  %6 = alloca i32, align 4
  store ptr %0, ptr %3, align 8, !tbaa !74
  store i32 %1, ptr %4, align 4, !tbaa !20
  call void @llvm.lifetime.start.p0(i64 8, ptr %5) #6
  %7 = call ptr @ASN1_ENUMERATED_new()
  store ptr %7, ptr %5, align 8, !tbaa !65
  call void @llvm.lifetime.start.p0(i64 4, ptr %6) #6
  store i32 0, ptr %6, align 4, !tbaa !20
  %8 = load ptr, ptr %5, align 8, !tbaa !65
  %9 = icmp ne ptr %8, null
  br i1 %9, label %10, label %20

10:                                               ; preds = %2
  %11 = load ptr, ptr %5, align 8, !tbaa !65
  %12 = load i32, ptr %4, align 4, !tbaa !20
  %13 = sext i32 %12 to i64
  %14 = call i32 @ASN1_ENUMERATED_set(ptr noundef %11, i64 noundef %13)
  %15 = icmp ne i32 %14, 0
  br i1 %15, label %16, label %20

16:                                               ; preds = %10
  %17 = load ptr, ptr %3, align 8, !tbaa !74
  %18 = load ptr, ptr %5, align 8, !tbaa !65
  %19 = call i32 @add1_extension(ptr noundef %17, i32 noundef 141, i32 noundef 0, ptr noundef %18)
  store i32 %19, ptr %6, align 4, !tbaa !20
  br label %20

20:                                               ; preds = %16, %10, %2
  %21 = load ptr, ptr %5, align 8, !tbaa !65
  call void @ASN1_ENUMERATED_free(ptr noundef %21)
  %22 = load i32, ptr %6, align 4, !tbaa !20
  call void @llvm.lifetime.end.p0(i64 4, ptr %6) #6
  call void @llvm.lifetime.end.p0(i64 8, ptr %5) #6
  ret i32 %22
}

; Function Attrs: nounwind uwtable
define ptr @ossl_cmp_rr_new(ptr noundef %0) #0 {
  %2 = alloca ptr, align 8
  %3 = alloca ptr, align 8
  %4 = alloca ptr, align 8
  %5 = alloca ptr, align 8
  %6 = alloca ptr, align 8
  %7 = alloca ptr, align 8
  %8 = alloca ptr, align 8
  %9 = alloca ptr, align 8
  %10 = alloca i32, align 4
  %11 = alloca i32, align 4
  store ptr %0, ptr %3, align 8, !tbaa !34
  call void @llvm.lifetime.start.p0(i64 8, ptr %4) #6
  store ptr null, ptr %4, align 8, !tbaa !10
  call void @llvm.lifetime.start.p0(i64 8, ptr %5) #6
  store ptr null, ptr %5, align 8, !tbaa !59
  call void @llvm.lifetime.start.p0(i64 8, ptr %6) #6
  store ptr null, ptr %6, align 8, !tbaa !59
  call void @llvm.lifetime.start.p0(i64 8, ptr %7) #6
  store ptr null, ptr %7, align 8, !tbaa !65
  call void @llvm.lifetime.start.p0(i64 8, ptr %8) #6
  store ptr null, ptr %8, align 8, !tbaa !57
  call void @llvm.lifetime.start.p0(i64 8, ptr %9) #6
  call void @llvm.lifetime.start.p0(i64 4, ptr %10) #6
  %12 = load ptr, ptr %3, align 8, !tbaa !34
  %13 = icmp ne ptr %12, null
  br i1 %13, label %14, label %38

14:                                               ; preds = %1
  %15 = load ptr, ptr %3, align 8, !tbaa !34
  %16 = getelementptr inbounds nuw %struct.ossl_cmp_ctx_st, ptr %15, i32 0, i32 62
  %17 = load ptr, ptr %16, align 8, !tbaa !54
  %18 = icmp ne ptr %17, null
  br i1 %18, label %36, label %19

19:                                               ; preds = %14
  %20 = load ptr, ptr %3, align 8, !tbaa !34
  %21 = getelementptr inbounds nuw %struct.ossl_cmp_ctx_st, ptr %20, i32 0, i32 63
  %22 = load ptr, ptr %21, align 8, !tbaa !53
  %23 = icmp ne ptr %22, null
  br i1 %23, label %36, label %24

24:                                               ; preds = %19
  %25 = load ptr, ptr %3, align 8, !tbaa !34
  %26 = getelementptr inbounds nuw %struct.ossl_cmp_ctx_st, ptr %25, i32 0, i32 52
  %27 = load ptr, ptr %26, align 8, !tbaa !117
  %28 = icmp ne ptr %27, null
  br i1 %28, label %29, label %34

29:                                               ; preds = %24
  %30 = load ptr, ptr %3, align 8, !tbaa !34
  %31 = getelementptr inbounds nuw %struct.ossl_cmp_ctx_st, ptr %30, i32 0, i32 51
  %32 = load ptr, ptr %31, align 8, !tbaa !60
  %33 = icmp ne ptr %32, null
  br label %34

34:                                               ; preds = %29, %24
  %35 = phi i1 [ false, %24 ], [ %33, %29 ]
  br label %36

36:                                               ; preds = %34, %19, %14
  %37 = phi i1 [ true, %19 ], [ true, %14 ], [ %35, %34 ]
  br label %38

38:                                               ; preds = %36, %1
  %39 = phi i1 [ false, %1 ], [ %37, %36 ]
  %40 = zext i1 %39 to i32
  %41 = icmp ne i32 %40, 0
  %42 = xor i1 %41, true
  %43 = xor i1 %42, true
  %44 = zext i1 %43 to i32
  %45 = sext i32 %44 to i64
  %46 = call i64 @llvm.expect.i64(i64 %45, i64 1)
  %47 = icmp ne i64 %46, 0
  br i1 %47, label %49, label %48

48:                                               ; preds = %38
  store ptr null, ptr %2, align 8
  store i32 1, ptr %11, align 4
  br label %153

49:                                               ; preds = %38
  %50 = call ptr @OSSL_CMP_REVDETAILS_new()
  store ptr %50, ptr %9, align 8, !tbaa !118
  %51 = icmp eq ptr %50, null
  br i1 %51, label %52, label %53

52:                                               ; preds = %49
  br label %150

53:                                               ; preds = %49
  %54 = load ptr, ptr %3, align 8, !tbaa !34
  %55 = getelementptr inbounds nuw %struct.ossl_cmp_ctx_st, ptr %54, i32 0, i32 52
  %56 = load ptr, ptr %55, align 8, !tbaa !117
  %57 = icmp ne ptr %56, null
  br i1 %57, label %58, label %70

58:                                               ; preds = %53
  %59 = load ptr, ptr %3, align 8, !tbaa !34
  %60 = getelementptr inbounds nuw %struct.ossl_cmp_ctx_st, ptr %59, i32 0, i32 51
  %61 = load ptr, ptr %60, align 8, !tbaa !60
  %62 = icmp ne ptr %61, null
  br i1 %62, label %63, label %70

63:                                               ; preds = %58
  %64 = load ptr, ptr %3, align 8, !tbaa !34
  %65 = getelementptr inbounds nuw %struct.ossl_cmp_ctx_st, ptr %64, i32 0, i32 51
  %66 = load ptr, ptr %65, align 8, !tbaa !60
  store ptr %66, ptr %5, align 8, !tbaa !59
  %67 = load ptr, ptr %3, align 8, !tbaa !34
  %68 = getelementptr inbounds nuw %struct.ossl_cmp_ctx_st, ptr %67, i32 0, i32 52
  %69 = load ptr, ptr %68, align 8, !tbaa !117
  store ptr %69, ptr %7, align 8, !tbaa !65
  br label %101

70:                                               ; preds = %58, %53
  %71 = load ptr, ptr %3, align 8, !tbaa !34
  %72 = getelementptr inbounds nuw %struct.ossl_cmp_ctx_st, ptr %71, i32 0, i32 62
  %73 = load ptr, ptr %72, align 8, !tbaa !54
  %74 = icmp ne ptr %73, null
  br i1 %74, label %75, label %84

75:                                               ; preds = %70
  %76 = load ptr, ptr %3, align 8, !tbaa !34
  %77 = getelementptr inbounds nuw %struct.ossl_cmp_ctx_st, ptr %76, i32 0, i32 62
  %78 = load ptr, ptr %77, align 8, !tbaa !54
  %79 = call ptr @X509_get_issuer_name(ptr noundef %78)
  store ptr %79, ptr %5, align 8, !tbaa !59
  %80 = load ptr, ptr %3, align 8, !tbaa !34
  %81 = getelementptr inbounds nuw %struct.ossl_cmp_ctx_st, ptr %80, i32 0, i32 62
  %82 = load ptr, ptr %81, align 8, !tbaa !54
  %83 = call ptr @X509_get0_serialNumber(ptr noundef %82)
  store ptr %83, ptr %7, align 8, !tbaa !65
  br label %100

84:                                               ; preds = %70
  %85 = load ptr, ptr %3, align 8, !tbaa !34
  %86 = getelementptr inbounds nuw %struct.ossl_cmp_ctx_st, ptr %85, i32 0, i32 63
  %87 = load ptr, ptr %86, align 8, !tbaa !53
  %88 = icmp ne ptr %87, null
  br i1 %88, label %89, label %98

89:                                               ; preds = %84
  %90 = load ptr, ptr %3, align 8, !tbaa !34
  %91 = getelementptr inbounds nuw %struct.ossl_cmp_ctx_st, ptr %90, i32 0, i32 63
  %92 = load ptr, ptr %91, align 8, !tbaa !53
  %93 = call ptr @X509_REQ_get0_pubkey(ptr noundef %92)
  store ptr %93, ptr %8, align 8, !tbaa !57
  %94 = load ptr, ptr %3, align 8, !tbaa !34
  %95 = getelementptr inbounds nuw %struct.ossl_cmp_ctx_st, ptr %94, i32 0, i32 63
  %96 = load ptr, ptr %95, align 8, !tbaa !53
  %97 = call ptr @X509_REQ_get_subject_name(ptr noundef %96)
  store ptr %97, ptr %6, align 8, !tbaa !59
  br label %99

98:                                               ; preds = %84
  br label %150

99:                                               ; preds = %89
  br label %100

100:                                              ; preds = %99, %75
  br label %101

101:                                              ; preds = %100, %63
  %102 = load ptr, ptr %9, align 8, !tbaa !118
  %103 = getelementptr inbounds nuw %struct.ossl_cmp_revdetails_st, ptr %102, i32 0, i32 0
  %104 = load ptr, ptr %103, align 8, !tbaa !120
  %105 = load ptr, ptr %8, align 8, !tbaa !57
  %106 = load ptr, ptr %6, align 8, !tbaa !59
  %107 = load ptr, ptr %5, align 8, !tbaa !59
  %108 = load ptr, ptr %7, align 8, !tbaa !65
  %109 = call i32 @OSSL_CRMF_CERTTEMPLATE_fill(ptr noundef %104, ptr noundef %105, ptr noundef %106, ptr noundef %107, ptr noundef %108)
  store i32 %109, ptr %10, align 4, !tbaa !20
  %110 = load i32, ptr %10, align 4, !tbaa !20
  %111 = icmp ne i32 %110, 0
  br i1 %111, label %113, label %112

112:                                              ; preds = %101
  br label %150

113:                                              ; preds = %101
  %114 = load ptr, ptr %3, align 8, !tbaa !34
  %115 = getelementptr inbounds nuw %struct.ossl_cmp_ctx_st, ptr %114, i32 0, i32 64
  %116 = load i32, ptr %115, align 8, !tbaa !122
  %117 = icmp ne i32 %116, -1
  br i1 %117, label %118, label %127

118:                                              ; preds = %113
  %119 = load ptr, ptr %9, align 8, !tbaa !118
  %120 = getelementptr inbounds nuw %struct.ossl_cmp_revdetails_st, ptr %119, i32 0, i32 1
  %121 = load ptr, ptr %3, align 8, !tbaa !34
  %122 = getelementptr inbounds nuw %struct.ossl_cmp_ctx_st, ptr %121, i32 0, i32 64
  %123 = load i32, ptr %122, align 8, !tbaa !122
  %124 = call i32 @add_crl_reason_extension(ptr noundef %120, i32 noundef %123)
  %125 = icmp ne i32 %124, 0
  br i1 %125, label %127, label %126

126:                                              ; preds = %118
  br label %150

127:                                              ; preds = %118, %113
  %128 = load ptr, ptr %3, align 8, !tbaa !34
  %129 = call ptr @ossl_cmp_msg_create(ptr noundef %128, i32 noundef 11)
  store ptr %129, ptr %4, align 8, !tbaa !10
  %130 = icmp eq ptr %129, null
  br i1 %130, label %131, label %132

131:                                              ; preds = %127
  br label %150

132:                                              ; preds = %127
  %133 = load ptr, ptr %4, align 8, !tbaa !10
  %134 = getelementptr inbounds nuw %struct.ossl_cmp_msg_st, ptr %133, i32 0, i32 1
  %135 = load ptr, ptr %134, align 8, !tbaa !22
  %136 = getelementptr inbounds nuw %struct.ossl_cmp_pkibody_st, ptr %135, i32 0, i32 1
  %137 = load ptr, ptr %136, align 8, !tbaa !25
  %138 = load ptr, ptr %9, align 8, !tbaa !118
  %139 = call i32 @sk_OSSL_CMP_REVDETAILS_push(ptr noundef %137, ptr noundef %138)
  %140 = icmp ne i32 %139, 0
  br i1 %140, label %142, label %141

141:                                              ; preds = %132
  br label %150

142:                                              ; preds = %132
  store ptr null, ptr %9, align 8, !tbaa !118
  %143 = load ptr, ptr %3, align 8, !tbaa !34
  %144 = load ptr, ptr %4, align 8, !tbaa !10
  %145 = call i32 @ossl_cmp_msg_protect(ptr noundef %143, ptr noundef %144)
  %146 = icmp ne i32 %145, 0
  br i1 %146, label %148, label %147

147:                                              ; preds = %142
  br label %150

148:                                              ; preds = %142
  %149 = load ptr, ptr %4, align 8, !tbaa !10
  store ptr %149, ptr %2, align 8
  store i32 1, ptr %11, align 4
  br label %153

150:                                              ; preds = %147, %141, %131, %126, %112, %98, %52
  call void @ERR_new()
  call void @ERR_set_debug(ptr noundef @.str, i32 noundef 634, ptr noundef @__func__.ossl_cmp_rr_new)
  call void (i32, i32, ptr, ...) @ERR_set_error(i32 noundef 58, i32 noundef 126, ptr noundef null)
  %151 = load ptr, ptr %4, align 8, !tbaa !10
  call void @OSSL_CMP_MSG_free(ptr noundef %151)
  %152 = load ptr, ptr %9, align 8, !tbaa !118
  call void @OSSL_CMP_REVDETAILS_free(ptr noundef %152)
  store ptr null, ptr %2, align 8
  store i32 1, ptr %11, align 4
  br label %153

153:                                              ; preds = %150, %148, %48
  call void @llvm.lifetime.end.p0(i64 4, ptr %10) #6
  call void @llvm.lifetime.end.p0(i64 8, ptr %9) #6
  call void @llvm.lifetime.end.p0(i64 8, ptr %8) #6
  call void @llvm.lifetime.end.p0(i64 8, ptr %7) #6
  call void @llvm.lifetime.end.p0(i64 8, ptr %6) #6
  call void @llvm.lifetime.end.p0(i64 8, ptr %5) #6
  call void @llvm.lifetime.end.p0(i64 8, ptr %4) #6
  %154 = load ptr, ptr %2, align 8
  ret ptr %154
}