; Function Attrs: nounwind uwtable
define ptr @ossl_cmp_rr_new(ptr noundef %0) local_unnamed_addr #0 {
  %.not = icmp eq ptr %0, null
  br i1 %.not, label %.critedge, label %2

2:                                                ; preds = %1
  %3 = getelementptr inbounds nuw i8, ptr %0, i64 432
  %4 = load ptr, ptr %3, align 8, !tbaa !41
  %.not47 = icmp eq ptr %4, null
  br i1 %.not47, label %5, label %.critedge60

5:                                                ; preds = %2
  %6 = getelementptr inbounds nuw i8, ptr %0, i64 440
  %7 = load ptr, ptr %6, align 8, !tbaa !40
  %.not48 = icmp eq ptr %7, null
  br i1 %.not48, label %8, label %.critedge60

8:                                                ; preds = %5
  %9 = getelementptr inbounds nuw i8, ptr %0, i64 368
  %10 = load ptr, ptr %9, align 8, !tbaa !78
  %.not49 = icmp eq ptr %10, null
  br i1 %.not49, label %.critedge, label %11

11:                                               ; preds = %8
  %12 = getelementptr inbounds nuw i8, ptr %0, i64 360
  %13 = load ptr, ptr %12, align 8, !tbaa !45
  %.not63 = icmp eq ptr %13, null
  br i1 %.not63, label %.critedge, label %.critedge60, !prof !18

.critedge60:                                      ; preds = %5, %2, %11
  %14 = tail call ptr @OSSL_CMP_REVDETAILS_new() #7
  %15 = icmp eq ptr %14, null
  br i1 %15, label %62, label %16

16:                                               ; preds = %.critedge60
  %17 = getelementptr inbounds nuw i8, ptr %0, i64 368
  %18 = load ptr, ptr %17, align 8, !tbaa !78
  %.not50 = icmp eq ptr %18, null
  br i1 %.not50, label %22, label %19

19:                                               ; preds = %16
  %20 = getelementptr inbounds nuw i8, ptr %0, i64 360
  %21 = load ptr, ptr %20, align 8, !tbaa !45
  %.not51 = icmp eq ptr %21, null
  br i1 %.not51, label %22, label %35

22:                                               ; preds = %19, %16
  %23 = load ptr, ptr %3, align 8, !tbaa !41
  %.not52 = icmp eq ptr %23, null
  br i1 %.not52, label %28, label %24

24:                                               ; preds = %22
  %25 = tail call ptr @X509_get_issuer_name(ptr noundef nonnull %23) #7
  %26 = load ptr, ptr %3, align 8, !tbaa !41
  %27 = tail call ptr @X509_get0_serialNumber(ptr noundef %26) #7
  br label %35

28:                                               ; preds = %22
  %29 = getelementptr inbounds nuw i8, ptr %0, i64 440
  %30 = load ptr, ptr %29, align 8, !tbaa !40
  %.not53 = icmp eq ptr %30, null
  br i1 %.not53, label %62, label %31

31:                                               ; preds = %28
  %32 = tail call ptr @X509_REQ_get0_pubkey(ptr noundef nonnull %30) #7
  %33 = load ptr, ptr %29, align 8, !tbaa !40
  %34 = tail call ptr @X509_REQ_get_subject_name(ptr noundef %33) #7
  br label %35

35:                                               ; preds = %19, %24, %31
  %.036 = phi ptr [ %25, %24 ], [ null, %31 ], [ %21, %19 ]
  %.035 = phi ptr [ null, %24 ], [ %34, %31 ], [ null, %19 ]
  %.034 = phi ptr [ %27, %24 ], [ null, %31 ], [ %18, %19 ]
  %.033 = phi ptr [ null, %24 ], [ %32, %31 ], [ null, %19 ]
  %36 = load ptr, ptr %14, align 8, !tbaa !79
  %37 = tail call i32 @OSSL_CRMF_CERTTEMPLATE_fill(ptr noundef %36, ptr noundef %.033, ptr noundef %.035, ptr noundef %.036, ptr noundef %.034) #7
  %.not54 = icmp eq i32 %37, 0
  br i1 %.not54, label %62, label %38

38:                                               ; preds = %35
  %39 = getelementptr inbounds nuw i8, ptr %0, i64 448
  %40 = load i32, ptr %39, align 8, !tbaa !82
  %.not55 = icmp eq i32 %40, -1
  br i1 %.not55, label %51, label %41

41:                                               ; preds = %38
  %42 = getelementptr inbounds nuw i8, ptr %14, i64 8
  %43 = tail call ptr @ASN1_ENUMERATED_new() #7
  %.not.i = icmp eq ptr %43, null
  br i1 %.not.i, label %add_crl_reason_extension.exit.thread, label %44

44:                                               ; preds = %41
  %45 = sext i32 %40 to i64
  %46 = tail call i32 @ASN1_ENUMERATED_set(ptr noundef nonnull %43, i64 noundef %45) #7
  %.not7.i = icmp eq i32 %46, 0
  br i1 %.not7.i, label %add_crl_reason_extension.exit.thread, label %47

47:                                               ; preds = %44
  %48 = tail call ptr @X509V3_EXT_i2d(i32 noundef 141, i32 noundef 0, ptr noundef nonnull %43) #7
  %49 = icmp eq ptr %48, null
  br i1 %49, label %add_crl_reason_extension.exit.thread, label %add_crl_reason_extension.exit

add_crl_reason_extension.exit.thread:             ; preds = %44, %41, %47
  tail call void @ASN1_ENUMERATED_free(ptr noundef %43) #7
  br label %62

add_crl_reason_extension.exit:                    ; preds = %47
  %50 = tail call ptr @X509v3_add_ext(ptr noundef nonnull %42, ptr noundef nonnull %48, i32 noundef 0) #7
  %.not64 = icmp eq ptr %50, null
  tail call void @X509_EXTENSION_free(ptr noundef nonnull %48) #7
  tail call void @ASN1_ENUMERATED_free(ptr noundef nonnull %43) #7
  br i1 %.not64, label %62, label %51

51:                                               ; preds = %add_crl_reason_extension.exit, %38
  %52 = tail call ptr @ossl_cmp_msg_create(ptr noundef nonnull %0, i32 noundef 11)
  %53 = icmp eq ptr %52, null
  br i1 %53, label %62, label %54

54:                                               ; preds = %51
  %55 = getelementptr inbounds nuw i8, ptr %52, i64 8
  %56 = load ptr, ptr %55, align 8, !tbaa !17
  %57 = getelementptr inbounds nuw i8, ptr %56, i64 8
  %58 = load ptr, ptr %57, align 8, !tbaa !22
  %59 = tail call i32 @OPENSSL_sk_push(ptr noundef %58, ptr noundef nonnull %14) #7
  %.not57 = icmp eq i32 %59, 0
  br i1 %.not57, label %62, label %60

60:                                               ; preds = %54
  %61 = tail call i32 @ossl_cmp_msg_protect(ptr noundef nonnull %0, ptr noundef nonnull %52) #7
  %.not58 = icmp eq i32 %61, 0
  br i1 %.not58, label %62, label %.critedge

62:                                               ; preds = %add_crl_reason_extension.exit.thread, %60, %54, %51, %add_crl_reason_extension.exit, %35, %28, %.critedge60
  %.037 = phi ptr [ null, %.critedge60 ], [ null, %51 ], [ %52, %60 ], [ %52, %54 ], [ null, %add_crl_reason_extension.exit ], [ null, %35 ], [ null, %28 ], [ null, %add_crl_reason_extension.exit.thread ]
  %.032 = phi ptr [ null, %.critedge60 ], [ %14, %51 ], [ null, %60 ], [ %14, %54 ], [ %14, %add_crl_reason_extension.exit ], [ %14, %35 ], [ %14, %28 ], [ %14, %add_crl_reason_extension.exit.thread ]
  tail call void @ERR_new() #7
  tail call void @ERR_set_debug(ptr noundef nonnull @.str, i32 noundef 634, ptr noundef nonnull @__func__.ossl_cmp_rr_new) #7
  tail call void (i32, i32, ptr, ...) @ERR_set_error(i32 noundef 58, i32 noundef 126, ptr noundef null) #7
  %63 = tail call ptr @OSSL_CMP_MSG_it() #7
  tail call void @ASN1_item_free(ptr noundef %.037, ptr noundef %63) #7
  tail call void @OSSL_CMP_REVDETAILS_free(ptr noundef %.032) #7
  br label %.critedge

.critedge:                                        ; preds = %1, %8, %60, %11, %62
  %.0 = phi ptr [ null, %62 ], [ null, %11 ], [ %52, %60 ], [ null, %8 ], [ null, %1 ]
  ret ptr %.0
}